target datalayout = "e-m:e-p270:32:32-p271:32:32-p272:64:64-i64:64-i128:128-f80:128-n8:16:32:64-S128"
target triple = "x86_64-pc-linux-gnu"

%struct.PJconsts = type { ptr, ptr, ptr, ptr, ptr, ptr, ptr, ptr, ptr, ptr, ptr, ptr, i32, ptr, ptr, ptr, ptr, ptr, ptr, ptr, ptr, double, double, double, double, double, double, double, double, double, double, double, double, double, double, double, double, double, double, double, double, double, double, i32, i32, i32, i32, i32, i32, i32, i32, i32, i32, i32, ptr, ptr, ptr, ptr, ptr, ptr, double, double, double, double, double, double, double, double, double, double, double, i32, [7 x double], i32, ptr, ptr, double, double, i32, [4 x i8], %"class.std::shared_ptr", i8, double, i8, %"class.std::__cxx11::basic_string", %"class.std::__cxx11::basic_string", %"class.std::__cxx11::basic_string", i8, %"class.std::vector", i32, %"class.std::vector.3", i32, i8, i8, i8, ptr }
%"class.std::shared_ptr" = type { %"class.std::__shared_ptr" }
%"class.std::__shared_ptr" = type { ptr, %"class.std::__shared_count" }
%"class.std::__shared_count" = type { ptr }
%"class.std::__cxx11::basic_string" = type { %"struct.std::__cxx11::basic_string<char>::_Alloc_hider", i64, %union.anon }
%"struct.std::__cxx11::basic_string<char>::_Alloc_hider" = type { ptr }
%union.anon = type { i64, [8 x i8] }
%"class.std::vector" = type { %"struct.std::_Vector_base" }
%"struct.std::_Vector_base" = type { %"struct.std::_Vector_base<osgeo::proj::operation::GridDescription, std::allocator<osgeo::proj::operation::GridDescription>>::_Vector_impl" }
%"struct.std::_Vector_base<osgeo::proj::operation::GridDescription, std::allocator<osgeo::proj::operation::GridDescription>>::_Vector_impl" = type { %"struct.std::_Vector_base<osgeo::proj::operation::GridDescription, std::allocator<osgeo::proj::operation::GridDescription>>::_Vector_impl_data" }
%"struct.std::_Vector_base<osgeo::proj::operation::GridDescription, std::allocator<osgeo::proj::operation::GridDescription>>::_Vector_impl_data" = type { ptr, ptr, ptr }
%"class.std::vector.3" = type { %"struct.std::_Vector_base.4" }
%"struct.std::_Vector_base.4" = type { %"struct.std::_Vector_base<PJCoordOperation, std::allocator<PJCoordOperation>>::_Vector_impl" }
%"struct.std::_Vector_base<PJCoordOperation, std::allocator<PJCoordOperation>>::_Vector_impl" = type { %"struct.std::_Vector_base<PJCoordOperation, std::allocator<PJCoordOperation>>::_Vector_impl_data" }
%"struct.std::_Vector_base<PJCoordOperation, std::allocator<PJCoordOperation>>::_Vector_impl_data" = type { ptr, ptr, ptr }
%"struct.(anonymous namespace)::pq_hammer" = type { double, double, double }
%struct.PJ_XY = type { double, double }
%struct.PJ_LP = type { double, double }
%union.PJ_COORD = type { [4 x double] }

; Function Attrs: mustprogress uwtable
define internal { double, double } @_ZL16hammer_s_forward5PJ_LPP8PJconsts(double %0, double %1, ptr noundef %2) #0 {
  %4 = alloca %struct.PJ_XY, align 8
  %5 = alloca %struct.PJ_LP, align 8
  %6 = alloca ptr, align 8
  %7 = alloca %struct.PJ_XY, align 8
  %8 = alloca ptr, align 8
  %9 = alloca double, align 8
  %10 = alloca double, align 8
  %11 = alloca double, align 8
  %12 = alloca %union.PJ_COORD, align 8
  %13 = alloca i32, align 4
  %14 = getelementptr inbounds nuw { double, double }, ptr %5, i32 0, i32 0
  store double %0, ptr %14, align 8
  %15 = getelementptr inbounds nuw { double, double }, ptr %5, i32 0, i32 1
  store double %1, ptr %15, align 8
  store ptr %2, ptr %6, align 8, !tbaa !3
  call void @llvm.lifetime.start.p0(i64 16, ptr %7) #8
  call void @llvm.memset.p0.i64(ptr align 8 %7, i8 0, i64 16, i1 false)
  call void @llvm.lifetime.start.p0(i64 8, ptr %8) #8
  %16 = load ptr, ptr %6, align 8, !tbaa !3
  %17 = getelementptr inbounds nuw %struct.PJconsts, ptr %16, i32 0, i32 11
  %18 = load ptr, ptr %17, align 8, !tbaa !43
  store ptr %18, ptr %8, align 8, !tbaa !41
  call void @llvm.lifetime.start.p0(i64 8, ptr %9) #8
  call void @llvm.lifetime.start.p0(i64 8, ptr %10) #8
  %19 = getelementptr inbounds nuw %struct.PJ_LP, ptr %5, i32 0, i32 1
  %20 = load double, ptr %19, align 8, !tbaa !54
  %21 = call double @cos(double noundef %20) #8, !tbaa !56
  store double %21, ptr %9, align 8, !tbaa !57
  %22 = load ptr, ptr %8, align 8, !tbaa !41
  %23 = getelementptr inbounds nuw %"struct.(anonymous namespace)::pq_hammer", ptr %22, i32 0, i32 0
  %24 = load double, ptr %23, align 8, !tbaa !47
  %25 = getelementptr inbounds nuw %struct.PJ_LP, ptr %5, i32 0, i32 0
  %26 = load double, ptr %25, align 8, !tbaa !58
  %27 = fmul double %26, %24
  store double %27, ptr %25, align 8, !tbaa !58
  call void @llvm.lifetime.start.p0(i64 8, ptr %11) #8
  %28 = load double, ptr %9, align 8, !tbaa !57
  %29 = getelementptr inbounds nuw %struct.PJ_LP, ptr %5, i32 0, i32 0
  %30 = load double, ptr %29, align 8, !tbaa !58
  %31 = call double @cos(double noundef %30) #8, !tbaa !56
  %32 = call double @llvm.fmuladd.f64(double %28, double %31, double 1.000000e+00)
  store double %32, ptr %11, align 8, !tbaa !57
  %33 = load double, ptr %11, align 8, !tbaa !57
  %34 = fcmp oeq double %33, 0.000000e+00
  br i1 %34, label %35, label %38

35:                                               ; preds = %3
  %36 = load ptr, ptr %6, align 8, !tbaa !3
  %37 = call i32 @proj_errno_set(ptr noundef %36, i32 noundef 2050)
  call void @llvm.lifetime.start.p0(i64 32, ptr %12) #8
  call void @_Z16proj_coord_errorv(ptr dead_on_unwind writable sret(%union.PJ_COORD) align 8 %12)
  call void @llvm.memcpy.p0.p0.i64(ptr align 8 %4, ptr align 8 %12, i64 16, i1 false), !tbaa.struct !59
  call void @llvm.lifetime.end.p0(i64 32, ptr %12) #8
  store i32 1, ptr %13, align 4
  br label %64

38:                                               ; preds = %3
  %39 = load double, ptr %11, align 8, !tbaa !57
  %40 = fdiv double 2.000000e+00, %39
  %41 = call double @sqrt(double noundef %40) #8, !tbaa !56
  store double %41, ptr %10, align 8, !tbaa !57
  %42 = load ptr, ptr %8, align 8, !tbaa !41
  %43 = getelementptr inbounds nuw %"struct.(anonymous namespace)::pq_hammer", ptr %42, i32 0, i32 1
  %44 = load double, ptr %43, align 8, !tbaa !49
  %45 = load double, ptr %10, align 8, !tbaa !57
  %46 = fmul double %44, %45
  %47 = load double, ptr %9, align 8, !tbaa !57
  %48 = fmul double %46, %47
  %49 = getelementptr inbounds nuw %struct.PJ_LP, ptr %5, i32 0, i32 0
  %50 = load double, ptr %49, align 8, !tbaa !58
  %51 = call double @sin(double noundef %50) #8, !tbaa !56
  %52 = fmul double %48, %51
  %53 = getelementptr inbounds nuw %struct.PJ_XY, ptr %7, i32 0, i32 0
  store double %52, ptr %53, align 8, !tbaa !60
  %54 = load ptr, ptr %8, align 8, !tbaa !41
  %55 = getelementptr inbounds nuw %"struct.(anonymous namespace)::pq_hammer", ptr %54, i32 0, i32 2
  %56 = load double, ptr %55, align 8, !tbaa !50
  %57 = load double, ptr %10, align 8, !tbaa !57
  %58 = fmul double %56, %57
  %59 = getelementptr inbounds nuw %struct.PJ_LP, ptr %5, i32 0, i32 1
  %60 = load double, ptr %59, align 8, !tbaa !54
  %61 = call double @sin(double noundef %60) #8, !tbaa !56
  %62 = fmul double %58, %61
  %63 = getelementptr inbounds nuw %struct.PJ_XY, ptr %7, i32 0, i32 1
  store double %62, ptr %63, align 8, !tbaa !62
  call void @llvm.memcpy.p0.p0.i64(ptr align 8 %4, ptr align 8 %7, i64 16, i1 false), !tbaa.struct !59
  store i32 1, ptr %13, align 4
  br label %64

64:                                               ; preds = %38, %35
  call void @llvm.lifetime.end.p0(i64 8, ptr %11) #8
  call void @llvm.lifetime.end.p0(i64 8, ptr %10) #8
  call void @llvm.lifetime.end.p0(i64 8, ptr %9) #8
  call void @llvm.lifetime.end.p0(i64 8, ptr %8) #8
  call void @llvm.lifetime.end.p0(i64 16, ptr %7) #8
  %65 = load { double, double }, ptr %4, align 8
  ret { double, double } %65
}