; Function Attrs: mustprogress uwtable
define internal { double, double } @_ZL16hammer_s_forward5PJ_LPP8PJconsts(double %0, double %1, ptr noundef %2) #0 {
  %4 = alloca %union.PJ_COORD, align 8
  %5 = getelementptr inbounds nuw i8, ptr %2, i64 88
  %6 = load ptr, ptr %5, align 8, !tbaa !40
  %7 = tail call double @cos(double noundef %1) #7, !tbaa !50
  %8 = load double, ptr %6, align 8, !tbaa !43
  %9 = fmul double %0, %8
  %10 = tail call double @cos(double noundef %9) #7, !tbaa !50
  %11 = tail call double @llvm.fmuladd.f64(double %7, double %10, double 1.000000e+00)
  %12 = fcmp oeq double %11, 0.000000e+00
  br i1 %12, label %13, label %15

13:                                               ; preds = %3
  %14 = tail call i32 @proj_errno_set(ptr noundef nonnull %2, i32 noundef 2050)
  call void @llvm.lifetime.start.p0(i64 32, ptr nonnull %4) #7
  call void @_Z16proj_coord_errorv(ptr dead_on_unwind nonnull writable sret(%union.PJ_COORD) align 8 %4)
  %.sroa.016.0.copyload = load double, ptr %4, align 8, !tbaa !51
  %.sroa.3.0..sroa_idx = getelementptr inbounds nuw i8, ptr %4, i64 8
  %.sroa.3.0.copyload = load double, ptr %.sroa.3.0..sroa_idx, align 8, !tbaa !51
  call void @llvm.lifetime.end.p0(i64 32, ptr nonnull %4) #7
  br label %29

15:                                               ; preds = %3
  %16 = fdiv double 2.000000e+00, %11
  %17 = tail call double @sqrt(double noundef %16) #7, !tbaa !50
  %18 = getelementptr inbounds nuw i8, ptr %6, i64 8
  %19 = load double, ptr %18, align 8, !tbaa !45
  %20 = fmul double %17, %19
  %21 = fmul double %7, %20
  %22 = tail call double @sin(double noundef %9) #7, !tbaa !50
  %23 = fmul double %22, %21
  %24 = getelementptr inbounds nuw i8, ptr %6, i64 16
  %25 = load double, ptr %24, align 8, !tbaa !46
  %26 = fmul double %17, %25
  %27 = tail call double @sin(double noundef %1) #7, !tbaa !50
  %28 = fmul double %26, %27
  br label %29

29:                                               ; preds = %15, %13
  %.sroa.016.0 = phi double [ %.sroa.016.0.copyload, %13 ], [ %23, %15 ]
  %.sroa.3.0 = phi double [ %.sroa.3.0.copyload, %13 ], [ %28, %15 ]
  %.fca.0.insert = insertvalue { double, double } poison, double %.sroa.016.0, 0
  %.fca.1.insert = insertvalue { double, double } %.fca.0.insert, double %.sroa.3.0, 1
  ret { double, double } %.fca.1.insert
}